; Function Attrs: null_pointer_is_valid sspstrong uwtable
define internal i32 @dissect_mip6_opt_badff(ptr noundef %0, ptr noundef %1, ptr noundef %2, ptr readnone captures(none) %3) #0 {
  %5 = alloca ptr, align 8
  call void @llvm.lifetime.start.p0(i64 8, ptr nonnull %5) #5
  %6 = tail call i32 @tvb_reported_length(ptr noundef %0)
  %7 = add i32 %6, -2
  %8 = load i32, ptr @proto_mip6_option_badff, align 4
  %9 = load i32, ptr @ett_mip6_opt_badff, align 4
  %10 = call fastcc ptr @mip6_var_option_header(ptr noundef %2, ptr noundef %1, ptr noundef %0, i32 noundef %8, i32 noundef %9, ptr noundef nonnull %5, i32 noundef %7, i32 noundef 4)
  %11 = load i32, ptr @hf_mip6_opt_badff_spi, align 4
  %12 = tail call ptr @proto_tree_add_item(ptr noundef %10, i32 noundef %11, ptr noundef %0, i32 noundef 2, i32 noundef 4, i32 noundef 0)
  %13 = load i32, ptr @hf_mip6_opt_badff_auth, align 4
  %14 = add i32 %6, -8
  %15 = tail call ptr @proto_tree_add_item(ptr noundef %10, i32 noundef %13, ptr noundef %0, i32 noundef 6, i32 noundef %14, i32 noundef 0)
  %16 = tail call i32 @tvb_captured_length(ptr noundef %0)
  call void @llvm.lifetime.end.p0(i64 8, ptr nonnull %5) #5
  ret i32 %16
}